target datalayout = "e-m:e-p270:32:32-p271:32:32-p272:64:64-i64:64-i128:128-f80:128-n8:16:32:64-S128"
target triple = "x86_64-pc-linux-gnu"

%struct.MOVTrack = type { i32, i32, i32, i32, i64, i64, i32, i64, i64, i64, i32, i32, i32, i32, i32, i32, i32, ptr, ptr, i32, i32, i32, ptr, ptr, ptr, i32, i32, i32, i32, i32, i64, i64, i64, i32, i64, i32, i32, ptr, i32, i64, i32, i64, i32, i32, %struct.HintSampleQueue, ptr, ptr, i64, i32, i32, i32, ptr, i32, %struct.anon, ptr, %struct.MOVMuxCencContext, [256 x i32], i32, i32, i32, %struct.PacketList, ptr, i32, i32, ptr }
%struct.HintSampleQueue = type { i32, i32, ptr }
%struct.anon = type { i32, i32, i32, i32, i32, i32, i32 }
%struct.MOVMuxCencContext = type { ptr, ptr, i64, i64, i32, i32, i16, i64, ptr, i64, ptr, i32, i32, ptr, %struct.CodedBitstreamFragment }
%struct.CodedBitstreamFragment = type { ptr, i64, i64, ptr, i32, i32, ptr }
%struct.PacketList = type { ptr, ptr }
%struct.MOVIentry = type { i64, i64, i64, i32, i32, i32, i32, i32, i32, %struct.AVProducerReferenceTime }
%struct.AVProducerReferenceTime = type { i64, i32 }

@.str.6 = private unnamed_addr constant [30 x i8] c"Assertion %s failed at %s:%d\0A\00", align 1
@.str.8 = private unnamed_addr constant [21 x i8] c"libavformat/movenc.c\00", align 1
@.str.400 = private unnamed_addr constant [14 x i8] c"next_dts >= 0\00", align 1
@.str.401 = private unnamed_addr constant [23 x i8] c"next_dts <= 2147483647\00", align 1

; Function Attrs: nounwind uwtable
define internal i32 @get_cluster_duration(ptr noundef %0, i32 noundef %1) #0 {
  %3 = alloca i32, align 4
  %4 = alloca ptr, align 8
  %5 = alloca i32, align 4
  %6 = alloca i64, align 8
  %7 = alloca i32, align 4
  store ptr %0, ptr %4, align 8, !tbaa !47
  store i32 %1, ptr %5, align 4, !tbaa !32
  call void @llvm.lifetime.start.p0(i64 8, ptr %6) #14
  %8 = load i32, ptr %5, align 4, !tbaa !32
  %9 = load ptr, ptr %4, align 8, !tbaa !47
  %10 = getelementptr inbounds nuw %struct.MOVTrack, ptr %9, i32 0, i32 1
  %11 = load i32, ptr %10, align 4, !tbaa !77
  %12 = icmp sge i32 %8, %11
  br i1 %12, label %13, label %14

13:                                               ; preds = %2
  store i32 0, ptr %3, align 4
  store i32 1, ptr %7, align 4
  br label %66

14:                                               ; preds = %2
  %15 = load i32, ptr %5, align 4, !tbaa !32
  %16 = add nsw i32 %15, 1
  %17 = load ptr, ptr %4, align 8, !tbaa !47
  %18 = getelementptr inbounds nuw %struct.MOVTrack, ptr %17, i32 0, i32 1
  %19 = load i32, ptr %18, align 4, !tbaa !77
  %20 = icmp eq i32 %16, %19
  br i1 %20, label %21, label %29

21:                                               ; preds = %14
  %22 = load ptr, ptr %4, align 8, !tbaa !47
  %23 = getelementptr inbounds nuw %struct.MOVTrack, ptr %22, i32 0, i32 5
  %24 = load i64, ptr %23, align 8, !tbaa !119
  %25 = load ptr, ptr %4, align 8, !tbaa !47
  %26 = getelementptr inbounds nuw %struct.MOVTrack, ptr %25, i32 0, i32 30
  %27 = load i64, ptr %26, align 8, !tbaa !117
  %28 = add nsw i64 %24, %27
  store i64 %28, ptr %6, align 8, !tbaa !134
  br label %39

29:                                               ; preds = %14
  %30 = load ptr, ptr %4, align 8, !tbaa !47
  %31 = getelementptr inbounds nuw %struct.MOVTrack, ptr %30, i32 0, i32 23
  %32 = load ptr, ptr %31, align 8, !tbaa !105
  %33 = load i32, ptr %5, align 4, !tbaa !32
  %34 = add nsw i32 %33, 1
  %35 = sext i32 %34 to i64
  %36 = getelementptr inbounds %struct.MOVIentry, ptr %32, i64 %35
  %37 = getelementptr inbounds nuw %struct.MOVIentry, ptr %36, i32 0, i32 1
  %38 = load i64, ptr %37, align 8, !tbaa !114
  store i64 %38, ptr %6, align 8, !tbaa !134
  br label %39

39:                                               ; preds = %29, %21
  %40 = load ptr, ptr %4, align 8, !tbaa !47
  %41 = getelementptr inbounds nuw %struct.MOVTrack, ptr %40, i32 0, i32 23
  %42 = load ptr, ptr %41, align 8, !tbaa !105
  %43 = load i32, ptr %5, align 4, !tbaa !32
  %44 = sext i32 %43 to i64
  %45 = getelementptr inbounds %struct.MOVIentry, ptr %42, i64 %44
  %46 = getelementptr inbounds nuw %struct.MOVIentry, ptr %45, i32 0, i32 1
  %47 = load i64, ptr %46, align 8, !tbaa !114
  %48 = load i64, ptr %6, align 8, !tbaa !134
  %49 = sub nsw i64 %48, %47
  store i64 %49, ptr %6, align 8, !tbaa !134
  br label %50

50:                                               ; preds = %39
  %51 = load i64, ptr %6, align 8, !tbaa !134
  %52 = icmp sge i64 %51, 0
  br i1 %52, label %54, label %53

53:                                               ; preds = %50
  call void (ptr, i32, ptr, ...) @av_log(ptr noundef null, i32 noundef 0, ptr noundef @.str.6, ptr noundef @.str.400, ptr noundef @.str.8, i32 noundef 1231)
  call void @abort() #16
  unreachable

54:                                               ; preds = %50
  br label %55

55:                                               ; preds = %54
  br label %56

56:                                               ; preds = %55
  br label %57

57:                                               ; preds = %56
  %58 = load i64, ptr %6, align 8, !tbaa !134
  %59 = icmp sle i64 %58, 2147483647
  br i1 %59, label %61, label %60

60:                                               ; preds = %57
  call void (ptr, i32, ptr, ...) @av_log(ptr noundef null, i32 noundef 0, ptr noundef @.str.6, ptr noundef @.str.401, ptr noundef @.str.8, i32 noundef 1232)
  call void @abort() #16
  unreachable

61:                                               ; preds = %57
  br label %62

62:                                               ; preds = %61
  br label %63

63:                                               ; preds = %62
  %64 = load i64, ptr %6, align 8, !tbaa !134
  %65 = trunc i64 %64 to i32
  store i32 %65, ptr %3, align 4
  store i32 1, ptr %7, align 4
  br label %66

66:                                               ; preds = %63, %13
  call void @llvm.lifetime.end.p0(i64 8, ptr %6) #14
  %67 = load i32, ptr %3, align 4
  ret i32 %67
}