; Function Attrs: nounwind uwtable
define internal fastcc range(i32 0, -2147483648) i32 @get_cluster_duration(ptr noundef readonly captures(none) %0, i32 noundef %1) unnamed_addr #0 {
  %3 = getelementptr inbounds nuw i8, ptr %0, i64 4
  %4 = load i32, ptr %3, align 4, !tbaa !63
  %.not = icmp slt i32 %1, %4
  br i1 %.not, label %5, label %33

5:                                                ; preds = %2
  %6 = add nsw i32 %1, 1
  %7 = icmp eq i32 %6, %4
  br i1 %7, label %8, label %14

8:                                                ; preds = %5
  %9 = getelementptr inbounds nuw i8, ptr %0, i64 24
  %10 = load i64, ptr %9, align 8, !tbaa !70
  %11 = getelementptr inbounds nuw i8, ptr %0, i64 176
  %12 = load i64, ptr %11, align 8, !tbaa !68
  %13 = add nsw i64 %12, %10
  %.phi.trans.insert = getelementptr inbounds nuw i8, ptr %0, i64 136
  %.pre = load ptr, ptr %.phi.trans.insert, align 8, !tbaa !64
  br label %20

14:                                               ; preds = %5
  %15 = getelementptr inbounds nuw i8, ptr %0, i64 136
  %16 = load ptr, ptr %15, align 8, !tbaa !64
  %17 = sext i32 %6 to i64
  %18 = getelementptr inbounds %struct.MOVIentry, ptr %16, i64 %17, i32 1
  %19 = load i64, ptr %18, align 8, !tbaa !65
  br label %20

20:                                               ; preds = %14, %8
  %21 = phi ptr [ %.pre, %8 ], [ %16, %14 ]
  %.0 = phi i64 [ %13, %8 ], [ %19, %14 ]
  %22 = sext i32 %1 to i64
  %23 = getelementptr inbounds %struct.MOVIentry, ptr %21, i64 %22, i32 1
  %24 = load i64, ptr %23, align 8, !tbaa !65
  %25 = sub nsw i64 %.0, %24
  %26 = icmp sgt i64 %25, -1
  br i1 %26, label %28, label %27

27:                                               ; preds = %20
  tail call void (ptr, i32, ptr, ...) @av_log(ptr noundef null, i32 noundef 0, ptr noundef nonnull @.str.6, ptr noundef nonnull @.str.400, ptr noundef nonnull @.str.8, i32 noundef 1231) #16
  tail call void @abort() #17
  unreachable

28:                                               ; preds = %20
  %29 = icmp samesign ult i64 %25, 2147483648
  br i1 %29, label %31, label %30

30:                                               ; preds = %28
  tail call void (ptr, i32, ptr, ...) @av_log(ptr noundef null, i32 noundef 0, ptr noundef nonnull @.str.6, ptr noundef nonnull @.str.401, ptr noundef nonnull @.str.8, i32 noundef 1232) #16
  tail call void @abort() #17
  unreachable

31:                                               ; preds = %28
  %32 = trunc nuw nsw i64 %25 to i32
  br label %33

33:                                               ; preds = %2, %31
  %.014 = phi i32 [ %32, %31 ], [ 0, %2 ]
  ret i32 %.014
}